target datalayout = "e-m:e-p270:32:32-p271:32:32-p272:64:64-i64:64-i128:128-f80:128-n8:16:32:64-S128"
target triple = "x86_64-pc-linux-gnu"

%struct.ItemPointerData = type { %struct.BlockIdData, i16 }
%struct.BlockIdData = type { i16, i16 }
%struct.ScanKeyData = type { i32, i16, i16, i32, i32, %struct.FmgrInfo, i64 }
%struct.FmgrInfo = type { ptr, i32, i16, i8, i8, i8, ptr, ptr, ptr }
%struct.FormData_pg_depend = type { i32, i32, i32, i32, i32, i32, i8 }
%struct.HeapTupleData = type { i32, %struct.ItemPointerData, i32, ptr }
%struct.HeapTupleHeaderData = type { %union.anon, %struct.ItemPointerData, i16, i16, i8, [0 x i8] }
%union.anon = type { %struct.HeapTupleFields }
%struct.HeapTupleFields = type { i32, i32, %union.anon.0 }
%union.anon.0 = type { i32 }

; Function Attrs: inlinehint nounwind uwtable
define internal ptr @GETSTRUCT(ptr noundef %0) #3 {
  %2 = alloca ptr, align 8
  store ptr %0, ptr %2, align 8
  %3 = load ptr, ptr %2, align 8
  %4 = getelementptr inbounds nuw %struct.HeapTupleData, ptr %3, i32 0, i32 3
  %5 = load ptr, ptr %4, align 8
  %6 = load ptr, ptr %2, align 8
  %7 = getelementptr inbounds nuw %struct.HeapTupleData, ptr %6, i32 0, i32 3
  %8 = load ptr, ptr %7, align 8
  %9 = getelementptr inbounds nuw %struct.HeapTupleHeaderData, ptr %8, i32 0, i32 4
  %10 = load i8, ptr %9, align 2
  %11 = zext i8 %10 to i32
  %12 = sext i32 %11 to i64
  %13 = getelementptr inbounds i8, ptr %5, i64 %12
  ret ptr %13
}

; Function Attrs: inlinehint nounwind uwtable
define internal i64 @Int32GetDatum(i32 noundef %0) #3 {
  %2 = alloca i32, align 4
  store i32 %0, ptr %2, align 4
  %3 = load i32, ptr %2, align 4
  %4 = sext i32 %3 to i64
  ret i64 %4
}

; Function Attrs: inlinehint nounwind uwtable
define internal i64 @ObjectIdGetDatum(i32 noundef %0) #3 {
  %2 = alloca i32, align 4
  store i32 %0, ptr %2, align 4
  %3 = load i32, ptr %2, align 4
  %4 = zext i32 %3 to i64
  ret i64 %4
}

; Function Attrs: nounwind uwtable
define internal ptr @getOwnedSequences_internal(i32 noundef %0, i16 noundef signext %1, i8 noundef signext %2) #0 {
  %4 = alloca i32, align 4
  %5 = alloca i16, align 2
  %6 = alloca i8, align 1
  %7 = alloca ptr, align 8
  %8 = alloca ptr, align 8
  %9 = alloca [3 x %struct.ScanKeyData], align 16
  %10 = alloca ptr, align 8
  %11 = alloca ptr, align 8
  %12 = alloca ptr, align 8
  store i32 %0, ptr %4, align 4
  store i16 %1, ptr %5, align 2
  store i8 %2, ptr %6, align 1
  call void @llvm.lifetime.start.p0(i64 8, ptr %7) #6
  store ptr null, ptr %7, align 8
  call void @llvm.lifetime.start.p0(i64 8, ptr %8) #6
  call void @llvm.lifetime.start.p0(i64 216, ptr %9) #6
  call void @llvm.lifetime.start.p0(i64 8, ptr %10) #6
  call void @llvm.lifetime.start.p0(i64 8, ptr %11) #6
  %13 = call ptr @table_open(i32 noundef 2608, i32 noundef 1)
  store ptr %13, ptr %8, align 8
  %14 = getelementptr inbounds [3 x %struct.ScanKeyData], ptr %9, i64 0, i64 0
  %15 = call i64 @ObjectIdGetDatum(i32 noundef 1259)
  call void @ScanKeyInit(ptr noundef %14, i16 noundef signext 4, i16 noundef zeroext 3, i32 noundef 184, i64 noundef %15)
  %16 = getelementptr inbounds [3 x %struct.ScanKeyData], ptr %9, i64 0, i64 1
  %17 = load i32, ptr %4, align 4
  %18 = call i64 @ObjectIdGetDatum(i32 noundef %17)
  call void @ScanKeyInit(ptr noundef %16, i16 noundef signext 5, i16 noundef zeroext 3, i32 noundef 184, i64 noundef %18)
  %19 = load i16, ptr %5, align 2
  %20 = icmp ne i16 %19, 0
  br i1 %20, label %21, label %26

21:                                               ; preds = %3
  %22 = getelementptr inbounds [3 x %struct.ScanKeyData], ptr %9, i64 0, i64 2
  %23 = load i16, ptr %5, align 2
  %24 = sext i16 %23 to i32
  %25 = call i64 @Int32GetDatum(i32 noundef %24)
  call void @ScanKeyInit(ptr noundef %22, i16 noundef signext 6, i16 noundef zeroext 3, i32 noundef 65, i64 noundef %25)
  br label %26

26:                                               ; preds = %21, %3
  %27 = load ptr, ptr %8, align 8
  %28 = load i16, ptr %5, align 2
  %29 = sext i16 %28 to i32
  %30 = icmp ne i32 %29, 0
  %31 = select i1 %30, i32 3, i32 2
  %32 = getelementptr inbounds [3 x %struct.ScanKeyData], ptr %9, i64 0, i64 0
  %33 = call ptr @systable_beginscan(ptr noundef %27, i32 noundef 2674, i1 noundef zeroext true, ptr noundef null, i32 noundef %31, ptr noundef %32)
  store ptr %33, ptr %10, align 8
  br label %34

34:                                               ; preds = %92, %26
  %35 = load ptr, ptr %10, align 8
  %36 = call ptr @systable_getnext(ptr noundef %35)
  store ptr %36, ptr %11, align 8
  %37 = icmp ne ptr %36, null
  br i1 %37, label %38, label %93

38:                                               ; preds = %34
  call void @llvm.lifetime.start.p0(i64 8, ptr %12) #6
  %39 = load ptr, ptr %11, align 8
  %40 = call ptr @GETSTRUCT(ptr noundef %39)
  store ptr %40, ptr %12, align 8
  %41 = load ptr, ptr %12, align 8
  %42 = getelementptr inbounds nuw %struct.FormData_pg_depend, ptr %41, i32 0, i32 0
  %43 = load i32, ptr %42, align 4
  %44 = icmp eq i32 %43, 1259
  br i1 %44, label %45, label %92

45:                                               ; preds = %38
  %46 = load ptr, ptr %12, align 8
  %47 = getelementptr inbounds nuw %struct.FormData_pg_depend, ptr %46, i32 0, i32 2
  %48 = load i32, ptr %47, align 4
  %49 = icmp eq i32 %48, 0
  br i1 %49, label %50, label %92

50:                                               ; preds = %45
  %51 = load ptr, ptr %12, align 8
  %52 = getelementptr inbounds nuw %struct.FormData_pg_depend, ptr %51, i32 0, i32 5
  %53 = load i32, ptr %52, align 4
  %54 = icmp ne i32 %53, 0
  br i1 %54, label %55, label %92

55:                                               ; preds = %50
  %56 = load ptr, ptr %12, align 8
  %57 = getelementptr inbounds nuw %struct.FormData_pg_depend, ptr %56, i32 0, i32 6
  %58 = load i8, ptr %57, align 4
  %59 = sext i8 %58 to i32
  %60 = icmp eq i32 %59, 97
  br i1 %60, label %67, label %61

61:                                               ; preds = %55
  %62 = load ptr, ptr %12, align 8
  %63 = getelementptr inbounds nuw %struct.FormData_pg_depend, ptr %62, i32 0, i32 6
  %64 = load i8, ptr %63, align 4
  %65 = sext i8 %64 to i32
  %66 = icmp eq i32 %65, 105
  br i1 %66, label %67, label %92

67:                                               ; preds = %61, %55
  %68 = load ptr, ptr %12, align 8
  %69 = getelementptr inbounds nuw %struct.FormData_pg_depend, ptr %68, i32 0, i32 1
  %70 = load i32, ptr %69, align 4
  %71 = call signext i8 @get_rel_relkind(i32 noundef %70)
  %72 = sext i8 %71 to i32
  %73 = icmp eq i32 %72, 83
  br i1 %73, label %74, label %92

74:                                               ; preds = %67
  %75 = load i8, ptr %6, align 1
  %76 = icmp ne i8 %75, 0
  br i1 %76, label %77, label %85

77:                                               ; preds = %74
  %78 = load ptr, ptr %12, align 8
  %79 = getelementptr inbounds nuw %struct.FormData_pg_depend, ptr %78, i32 0, i32 6
  %80 = load i8, ptr %79, align 4
  %81 = sext i8 %80 to i32
  %82 = load i8, ptr %6, align 1
  %83 = sext i8 %82 to i32
  %84 = icmp eq i32 %81, %83
  br i1 %84, label %85, label %91

85:                                               ; preds = %77, %74
  %86 = load ptr, ptr %7, align 8
  %87 = load ptr, ptr %12, align 8
  %88 = getelementptr inbounds nuw %struct.FormData_pg_depend, ptr %87, i32 0, i32 1
  %89 = load i32, ptr %88, align 4
  %90 = call ptr @lappend_oid(ptr noundef %86, i32 noundef %89)
  store ptr %90, ptr %7, align 8
  br label %91

91:                                               ; preds = %85, %77
  br label %92

92:                                               ; preds = %91, %67, %61, %50, %45, %38
  call void @llvm.lifetime.end.p0(i64 8, ptr %12) #6
  br label %34, !llvm.loop !18

93:                                               ; preds = %34
  %94 = load ptr, ptr %10, align 8
  call void @systable_endscan(ptr noundef %94)
  %95 = load ptr, ptr %8, align 8
  call void @table_close(ptr noundef %95, i32 noundef 1)
  %96 = load ptr, ptr %7, align 8
  call void @llvm.lifetime.end.p0(i64 8, ptr %11) #6
  call void @llvm.lifetime.end.p0(i64 8, ptr %10) #6
  call void @llvm.lifetime.end.p0(i64 216, ptr %9) #6
  call void @llvm.lifetime.end.p0(i64 8, ptr %8) #6
  call void @llvm.lifetime.end.p0(i64 8, ptr %7) #6
  ret ptr %96
}