; Function Attrs: nounwind uwtable
define internal fastcc ptr @getOwnedSequences_internal(i32 noundef %0, i16 noundef signext %1, i8 noundef signext range(i8 0, 106) %2) unnamed_addr #0 {
  %4 = alloca [3 x %struct.ScanKeyData], align 16
  call void @llvm.lifetime.start.p0(i64 216, ptr nonnull %4) #7
  %5 = tail call ptr @table_open(i32 noundef 2608, i32 noundef 1) #7
  call void @ScanKeyInit(ptr noundef nonnull %4, i16 noundef signext 4, i16 noundef zeroext 3, i32 noundef 184, i64 noundef 1259) #7
  %6 = getelementptr inbounds nuw i8, ptr %4, i64 72
  %7 = zext i32 %0 to i64
  call void @ScanKeyInit(ptr noundef nonnull %6, i16 noundef signext 5, i16 noundef zeroext 3, i32 noundef 184, i64 noundef %7) #7
  %.not = icmp eq i16 %1, 0
  br i1 %.not, label %11, label %8

8:                                                ; preds = %3
  %9 = getelementptr inbounds nuw i8, ptr %4, i64 144
  %10 = sext i16 %1 to i64
  call void @ScanKeyInit(ptr noundef nonnull %9, i16 noundef signext 6, i16 noundef zeroext 3, i32 noundef 65, i64 noundef %10) #7
  br label %11

11:                                               ; preds = %8, %3
  %12 = phi i32 [ 3, %8 ], [ 2, %3 ]
  %13 = call ptr @systable_beginscan(ptr noundef %5, i32 noundef 2674, i1 noundef zeroext true, ptr noundef null, i32 noundef %12, ptr noundef nonnull %4) #7
  %14 = call ptr @systable_getnext(ptr noundef %13) #7
  %.not2528 = icmp eq ptr %14, null
  br i1 %.not2528, label %._crit_edge, label %.lr.ph

.lr.ph:                                           ; preds = %11
  %.not27 = icmp eq i8 %2, 0
  br i1 %.not27, label %.lr.ph.split.us, label %.lr.ph.split

.lr.ph.split.us:                                  ; preds = %.lr.ph, %41
  %15 = phi ptr [ %42, %41 ], [ %14, %.lr.ph ]
  %.029.us = phi ptr [ %.1.us, %41 ], [ null, %.lr.ph ]
  %16 = getelementptr i8, ptr %15, i64 16
  %.val.us = load ptr, ptr %16, align 8
  %17 = getelementptr inbounds nuw i8, ptr %.val.us, i64 22
  %18 = load i8, ptr %17, align 2
  %19 = zext i8 %18 to i64
  %20 = getelementptr inbounds nuw i8, ptr %.val.us, i64 %19
  %21 = load i32, ptr %20, align 4
  %22 = icmp eq i32 %21, 1259
  br i1 %22, label %23, label %41

23:                                               ; preds = %.lr.ph.split.us
  %24 = getelementptr inbounds nuw i8, ptr %20, i64 8
  %25 = load i32, ptr %24, align 4
  %26 = icmp eq i32 %25, 0
  br i1 %26, label %27, label %41

27:                                               ; preds = %23
  %28 = getelementptr inbounds nuw i8, ptr %20, i64 20
  %29 = load i32, ptr %28, align 4
  %.not26.us = icmp eq i32 %29, 0
  br i1 %.not26.us, label %41, label %30

30:                                               ; preds = %27
  %31 = getelementptr inbounds nuw i8, ptr %20, i64 24
  %32 = load i8, ptr %31, align 4
  switch i8 %32, label %41 [
    i8 97, label %33
    i8 105, label %33
  ]

33:                                               ; preds = %30, %30
  %34 = getelementptr inbounds nuw i8, ptr %20, i64 4
  %35 = load i32, ptr %34, align 4
  %36 = call signext i8 @get_rel_relkind(i32 noundef %35) #7
  %37 = icmp eq i8 %36, 83
  br i1 %37, label %38, label %41

38:                                               ; preds = %33
  %39 = load i32, ptr %34, align 4
  %40 = call ptr @lappend_oid(ptr noundef %.029.us, i32 noundef %39) #7
  br label %41

41:                                               ; preds = %38, %33, %30, %27, %23, %.lr.ph.split.us
  %.1.us = phi ptr [ %40, %38 ], [ %.029.us, %33 ], [ %.029.us, %27 ], [ %.029.us, %23 ], [ %.029.us, %.lr.ph.split.us ], [ %.029.us, %30 ]
  %42 = call ptr @systable_getnext(ptr noundef %13) #7
  %.not25.us = icmp eq ptr %42, null
  br i1 %.not25.us, label %._crit_edge, label %.lr.ph.split.us, !llvm.loop !16

.lr.ph.split:                                     ; preds = %.lr.ph, %72
  %43 = phi ptr [ %73, %72 ], [ %14, %.lr.ph ]
  %.029 = phi ptr [ %.1, %72 ], [ null, %.lr.ph ]
  %44 = getelementptr i8, ptr %43, i64 16
  %.val = load ptr, ptr %44, align 8
  %45 = getelementptr inbounds nuw i8, ptr %.val, i64 22
  %46 = load i8, ptr %45, align 2
  %47 = zext i8 %46 to i64
  %48 = getelementptr inbounds nuw i8, ptr %.val, i64 %47
  %49 = load i32, ptr %48, align 4
  %50 = icmp eq i32 %49, 1259
  br i1 %50, label %51, label %72

51:                                               ; preds = %.lr.ph.split
  %52 = getelementptr inbounds nuw i8, ptr %48, i64 8
  %53 = load i32, ptr %52, align 4
  %54 = icmp eq i32 %53, 0
  br i1 %54, label %55, label %72

55:                                               ; preds = %51
  %56 = getelementptr inbounds nuw i8, ptr %48, i64 20
  %57 = load i32, ptr %56, align 4
  %.not26 = icmp eq i32 %57, 0
  br i1 %.not26, label %72, label %58

58:                                               ; preds = %55
  %59 = getelementptr inbounds nuw i8, ptr %48, i64 24
  %60 = load i8, ptr %59, align 4
  switch i8 %60, label %72 [
    i8 97, label %61
    i8 105, label %61
  ]

61:                                               ; preds = %58, %58
  %62 = getelementptr inbounds nuw i8, ptr %48, i64 4
  %63 = load i32, ptr %62, align 4
  %64 = call signext i8 @get_rel_relkind(i32 noundef %63) #7
  %65 = icmp eq i8 %64, 83
  br i1 %65, label %66, label %72

66:                                               ; preds = %61
  %67 = load i8, ptr %59, align 4
  %68 = icmp eq i8 %67, %2
  br i1 %68, label %69, label %72

69:                                               ; preds = %66
  %70 = load i32, ptr %62, align 4
  %71 = call ptr @lappend_oid(ptr noundef %.029, i32 noundef %70) #7
  br label %72

72:                                               ; preds = %58, %66, %69, %61, %55, %51, %.lr.ph.split
  %.1 = phi ptr [ %71, %69 ], [ %.029, %66 ], [ %.029, %61 ], [ %.029, %55 ], [ %.029, %51 ], [ %.029, %.lr.ph.split ], [ %.029, %58 ]
  %73 = call ptr @systable_getnext(ptr noundef %13) #7
  %.not25 = icmp eq ptr %73, null
  br i1 %.not25, label %._crit_edge, label %.lr.ph.split, !llvm.loop !16

._crit_edge:                                      ; preds = %72, %41, %11
  %.0.lcssa = phi ptr [ null, %11 ], [ %.1.us, %41 ], [ %.1, %72 ]
  call void @systable_endscan(ptr noundef %13) #7
  call void @table_close(ptr noundef %5, i32 noundef 1) #7
  call void @llvm.lifetime.end.p0(i64 216, ptr nonnull %4) #7
  ret ptr %.0.lcssa
}